target datalayout = "e-m:e-p270:32:32-p271:32:32-p272:64:64-i64:64-i128:128-f80:128-n8:16:32:64-S128"
target triple = "x86_64-pc-linux-gnu"

%struct.SN_env = type { ptr, i32, i32, i32, i32, i32, ptr, ptr }

; Function Attrs: nounwind uwtable
define internal i32 @r_SUFFIX_KAN_OK(ptr noundef %0) #0 {
  %2 = alloca i32, align 4
  %3 = alloca ptr, align 8
  store ptr %0, ptr %3, align 8
  %4 = load ptr, ptr %3, align 8
  %5 = getelementptr inbounds nuw %struct.SN_env, ptr %4, i32 0, i32 7
  %6 = load ptr, ptr %5, align 8
  %7 = getelementptr inbounds i32, ptr %6, i64 0
  %8 = load i32, ptr %7, align 4
  %9 = icmp ne i32 %8, 3
  br i1 %9, label %11, label %10

10:                                               ; preds = %1
  store i32 0, ptr %2, align 4
  br label %20

11:                                               ; preds = %1
  %12 = load ptr, ptr %3, align 8
  %13 = getelementptr inbounds nuw %struct.SN_env, ptr %12, i32 0, i32 7
  %14 = load ptr, ptr %13, align 8
  %15 = getelementptr inbounds i32, ptr %14, i64 0
  %16 = load i32, ptr %15, align 4
  %17 = icmp ne i32 %16, 2
  br i1 %17, label %19, label %18

18:                                               ; preds = %11
  store i32 0, ptr %2, align 4
  br label %20

19:                                               ; preds = %11
  store i32 1, ptr %2, align 4
  br label %20

20:                                               ; preds = %19, %18, %10
  %21 = load i32, ptr %2, align 4
  ret i32 %21
}